target datalayout = "e-m:e-p270:32:32-p271:32:32-p272:64:64-i64:64-i128:128-f80:128-n8:16:32:64-S128"
target triple = "x86_64-pc-linux-gnu"

; Function Attrs: nounwind uwtable
define i64 @OPENSSL_strnlen(ptr noundef %0, i64 noundef %1) #0 {
  %3 = alloca ptr, align 8
  %4 = alloca i64, align 8
  %5 = alloca ptr, align 8
  store ptr %0, ptr %3, align 8, !tbaa !3
  store i64 %1, ptr %4, align 8, !tbaa !10
  call void @llvm.lifetime.start.p0(i64 8, ptr %5) #8
  %6 = load ptr, ptr %3, align 8, !tbaa !3
  store ptr %6, ptr %5, align 8, !tbaa !3
  br label %7

7:                                                ; preds = %19, %2
  %8 = load i64, ptr %4, align 8, !tbaa !10
  %9 = add i64 %8, -1
  store i64 %9, ptr %4, align 8, !tbaa !10
  %10 = icmp ne i64 %8, 0
  br i1 %10, label %11, label %16

11:                                               ; preds = %7
  %12 = load ptr, ptr %5, align 8, !tbaa !3
  %13 = load i8, ptr %12, align 1, !tbaa !12
  %14 = sext i8 %13 to i32
  %15 = icmp ne i32 %14, 0
  br label %16

16:                                               ; preds = %11, %7
  %17 = phi i1 [ false, %7 ], [ %15, %11 ]
  br i1 %17, label %18, label %22

18:                                               ; preds = %16
  br label %19

19:                                               ; preds = %18
  %20 = load ptr, ptr %5, align 8, !tbaa !3
  %21 = getelementptr inbounds nuw i8, ptr %20, i32 1
  store ptr %21, ptr %5, align 8, !tbaa !3
  br label %7, !llvm.loop !13

22:                                               ; preds = %16
  %23 = load ptr, ptr %5, align 8, !tbaa !3
  %24 = load ptr, ptr %3, align 8, !tbaa !3
  %25 = ptrtoint ptr %23 to i64
  %26 = ptrtoint ptr %24 to i64
  %27 = sub i64 %25, %26
  call void @llvm.lifetime.end.p0(i64 8, ptr %5) #8
  ret i64 %27
}