; Function Attrs: nofree norecurse nosync nounwind memory(argmem: read) uwtable
define noundef i64 @OPENSSL_strnlen(ptr noundef %0, i64 noundef %1) local_unnamed_addr #5 {
  %.not7 = icmp eq i64 %1, 0
  br i1 %.not7, label %.critedge, label %.lr.ph.preheader

.lr.ph.preheader:                                 ; preds = %2
  %scevgep = getelementptr i8, ptr %0, i64 %1
  br label %.lr.ph

.lr.ph:                                           ; preds = %.lr.ph.preheader, %4
  %.in = phi i64 [ %5, %4 ], [ %1, %.lr.ph.preheader ]
  %.08 = phi ptr [ %6, %4 ], [ %0, %.lr.ph.preheader ]
  %3 = load i8, ptr %.08, align 1, !tbaa !3
  %.not6 = icmp eq i8 %3, 0
  br i1 %.not6, label %.critedge, label %4

4:                                                ; preds = %.lr.ph
  %5 = add i64 %.in, -1
  %6 = getelementptr inbounds nuw i8, ptr %.08, i64 1
  %.not = icmp eq i64 %5, 0
  br i1 %.not, label %.critedge, label %.lr.ph, !llvm.loop !6

.critedge:                                        ; preds = %.lr.ph, %4, %2
  %.0.lcssa = phi ptr [ %0, %2 ], [ %scevgep, %4 ], [ %.08, %.lr.ph ]
  %7 = ptrtoint ptr %.0.lcssa to i64
  %8 = ptrtoint ptr %0 to i64
  %9 = sub i64 %7, %8
  ret i64 %9
}